; Function Attrs: nounwind uwtable
define range(i32 -72, 1) i32 @prte_iof_base_setup_child(ptr noundef readonly captures(none) %0, ptr noundef readnone captures(none) %1) local_unnamed_addr #0 {
  %3 = alloca %struct.termios, align 4
  %4 = getelementptr inbounds nuw i8, ptr %0, i64 4
  %5 = load i8, ptr %4, align 4, !tbaa !12, !range !13, !noundef !14
  %6 = trunc nuw i8 %5 to i1
  br i1 %6, label %7, label %11

7:                                                ; preds = %2
  %8 = getelementptr inbounds nuw i8, ptr %0, i64 12
  %9 = load i32, ptr %8, align 4, !tbaa !15
  %10 = tail call i32 @close(i32 noundef %9) #6
  br label %11

11:                                               ; preds = %7, %2
  %12 = getelementptr inbounds nuw i8, ptr %0, i64 16
  %13 = load i32, ptr %12, align 4, !tbaa !15
  %14 = tail call i32 @close(i32 noundef %13) #6
  %15 = getelementptr inbounds nuw i8, ptr %0, i64 24
  %16 = load i32, ptr %15, align 4, !tbaa !15
  %17 = tail call i32 @close(i32 noundef %16) #6
  %18 = load i32, ptr %0, align 4, !tbaa !8
  %.not = icmp eq i32 %18, 0
  br i1 %.not, label %45, label %19

19:                                               ; preds = %11
  call void @llvm.lifetime.start.p0(i64 60, ptr nonnull %3) #6
  %20 = getelementptr inbounds nuw i8, ptr %0, i64 20
  %21 = load i32, ptr %20, align 4, !tbaa !15
  %22 = call i32 @tcgetattr(i32 noundef %21, ptr noundef nonnull %3) #6
  %23 = icmp slt i32 %22, 0
  br i1 %23, label %44, label %24

24:                                               ; preds = %19
  %25 = getelementptr inbounds nuw i8, ptr %3, i64 12
  %26 = load i32, ptr %25, align 4, !tbaa !16
  %27 = and i32 %26, -2681
  store i32 %27, ptr %25, align 4, !tbaa !16
  %28 = load i32, ptr %3, align 4, !tbaa !18
  %29 = and i32 %28, -1393
  store i32 %29, ptr %3, align 4, !tbaa !18
  %30 = getelementptr inbounds nuw i8, ptr %3, i64 4
  %31 = load i32, ptr %30, align 4, !tbaa !19
  %32 = and i32 %31, -13
  store i32 %32, ptr %30, align 4, !tbaa !19
  %33 = load i32, ptr %20, align 4, !tbaa !15
  %34 = call i32 @tcsetattr(i32 noundef %33, i32 noundef 0, ptr noundef nonnull %3) #6
  %35 = icmp eq i32 %34, -1
  br i1 %35, label %44, label %36

36:                                               ; preds = %24
  %37 = load i32, ptr %20, align 4, !tbaa !15
  %38 = load ptr, ptr @stdout, align 8, !tbaa !3
  %39 = call i32 @fileno_unlocked(ptr noundef %38) #6
  %40 = call i32 @dup2(i32 noundef %37, i32 noundef %39) #6
  %41 = icmp slt i32 %40, 0
  br i1 %41, label %44, label %.critedge

.critedge:                                        ; preds = %36
  %42 = load i32, ptr %20, align 4, !tbaa !15
  %43 = call i32 @close(i32 noundef %42) #6
  call void @llvm.lifetime.end.p0(i64 60, ptr nonnull %3) #6
  br label %59

44:                                               ; preds = %36, %24, %19
  call void @llvm.lifetime.end.p0(i64 60, ptr nonnull %3) #6
  br label %98

45:                                               ; preds = %11
  %46 = getelementptr inbounds nuw i8, ptr %0, i64 20
  %47 = load i32, ptr %46, align 4, !tbaa !15
  %48 = load ptr, ptr @stdout, align 8, !tbaa !3
  %49 = tail call i32 @fileno_unlocked(ptr noundef %48) #6
  %.not28 = icmp eq i32 %47, %49
  br i1 %.not28, label %59, label %50

50:                                               ; preds = %45
  %51 = load i32, ptr %46, align 4, !tbaa !15
  %52 = load ptr, ptr @stdout, align 8, !tbaa !3
  %53 = tail call i32 @fileno_unlocked(ptr noundef %52) #6
  %54 = tail call i32 @dup2(i32 noundef %51, i32 noundef %53) #6
  %55 = icmp slt i32 %54, 0
  br i1 %55, label %98, label %56

56:                                               ; preds = %50
  %57 = load i32, ptr %46, align 4, !tbaa !15
  %58 = tail call i32 @close(i32 noundef %57) #6
  br label %59

59:                                               ; preds = %.critedge, %45, %56
  %60 = load i8, ptr %4, align 4, !tbaa !12, !range !13, !noundef !14
  %61 = trunc nuw i8 %60 to i1
  br i1 %61, label %62, label %75

62:                                               ; preds = %59
  %63 = getelementptr inbounds nuw i8, ptr %0, i64 8
  %64 = load i32, ptr %63, align 4, !tbaa !15
  %65 = load ptr, ptr @stdin, align 8, !tbaa !3
  %66 = call i32 @fileno_unlocked(ptr noundef %65) #6
  %.not30 = icmp eq i32 %64, %66
  br i1 %.not30, label %84, label %67

67:                                               ; preds = %62
  %68 = load i32, ptr %63, align 4, !tbaa !15
  %69 = load ptr, ptr @stdin, align 8, !tbaa !3
  %70 = call i32 @fileno_unlocked(ptr noundef %69) #6
  %71 = call i32 @dup2(i32 noundef %68, i32 noundef %70) #6
  %72 = icmp slt i32 %71, 0
  br i1 %72, label %98, label %73

73:                                               ; preds = %67
  %74 = load i32, ptr %63, align 4, !tbaa !15
  br label %.sink.split

75:                                               ; preds = %59
  %76 = call i32 (ptr, i32, ...) @open(ptr noundef nonnull @.str.2, i32 noundef 0, i32 noundef 0) #6
  %77 = load ptr, ptr @stdin, align 8, !tbaa !3
  %78 = call i32 @fileno(ptr noundef %77) #6
  %.not29 = icmp eq i32 %76, %78
  br i1 %.not29, label %.sink.split, label %79

79:                                               ; preds = %75
  %80 = load ptr, ptr @stdin, align 8, !tbaa !3
  %81 = call i32 @fileno(ptr noundef %80) #6
  %82 = call i32 @dup2(i32 noundef %76, i32 noundef %81) #6
  br label %.sink.split

.sink.split:                                      ; preds = %75, %79, %73
  %.sink = phi i32 [ %74, %73 ], [ %76, %79 ], [ %76, %75 ]
  %83 = call i32 @close(i32 noundef %.sink) #6
  br label %84

84:                                               ; preds = %.sink.split, %62
  %85 = getelementptr inbounds nuw i8, ptr %0, i64 28
  %86 = load i32, ptr %85, align 4, !tbaa !15
  %87 = load ptr, ptr @stderr, align 8, !tbaa !3
  %88 = call i32 @fileno_unlocked(ptr noundef %87) #6
  %.not31 = icmp eq i32 %86, %88
  br i1 %.not31, label %98, label %89

89:                                               ; preds = %84
  %90 = load i32, ptr %85, align 4, !tbaa !15
  %91 = load ptr, ptr @stderr, align 8, !tbaa !3
  %92 = call i32 @fileno_unlocked(ptr noundef %91) #6
  %93 = call i32 @dup2(i32 noundef %90, i32 noundef %92) #6
  %94 = icmp slt i32 %93, 0
  br i1 %94, label %98, label %95

95:                                               ; preds = %89
  %96 = load i32, ptr %85, align 4, !tbaa !15
  %97 = call i32 @close(i32 noundef %96) #6
  br label %98

98:                                               ; preds = %84, %95, %89, %67, %50, %44
  %.1 = phi i32 [ -72, %44 ], [ -72, %50 ], [ -72, %67 ], [ -72, %89 ], [ 0, %95 ], [ 0, %84 ]
  ret i32 %.1
}